; Function Attrs: nounwind uwtable
define void @av_bprint_init(ptr noundef %0, i32 noundef %1, i32 noundef %2) local_unnamed_addr #0 {
  %4 = getelementptr inbounds nuw i8, ptr %0, i64 20
  %5 = icmp eq i32 %2, 1
  %spec.select = select i1 %5, i32 1004, i32 %2
  store ptr %4, ptr %0, align 8, !tbaa !4
  %6 = getelementptr inbounds nuw i8, ptr %0, i64 8
  store i32 0, ptr %6, align 8, !tbaa !11
  %7 = tail call i32 @llvm.umin.i32(i32 %spec.select, i32 1004)
  %8 = getelementptr inbounds nuw i8, ptr %0, i64 12
  store i32 %7, ptr %8, align 4, !tbaa !12
  %9 = getelementptr inbounds nuw i8, ptr %0, i64 16
  store i32 %spec.select, ptr %9, align 8, !tbaa !13
  store i8 0, ptr %4, align 1, !tbaa !14
  %10 = icmp ugt i32 %1, %7
  %11 = icmp ugt i32 %spec.select, 1004
  %or.cond = and i1 %11, %10
  br i1 %or.cond, label %12, label %av_bprint_alloc.exit

12:                                               ; preds = %3
  %13 = icmp ult i32 %spec.select, 2008
  %14 = shl nuw nsw i32 %7, 1
  %15 = select i1 %13, i32 %spec.select, i32 %14
  %16 = icmp ult i32 %15, %1
  %.44.i = tail call i32 @llvm.umin.i32(i32 %spec.select, i32 %1)
  %.0.i = select i1 %16, i32 %.44.i, i32 %15
  %17 = zext i32 %.0.i to i64
  %18 = tail call ptr @av_realloc(ptr noundef null, i64 noundef %17) #12
  %.not42.i = icmp eq ptr %18, null
  br i1 %.not42.i, label %av_bprint_alloc.exit, label %19

19:                                               ; preds = %12
  %20 = load ptr, ptr %0, align 8, !tbaa !4
  %21 = load i32, ptr %6, align 8, !tbaa !11
  %22 = add i32 %21, 1
  %23 = zext i32 %22 to i64
  tail call void @llvm.memcpy.p0.p0.i64(ptr nonnull align 1 %18, ptr align 1 %20, i64 %23, i1 false)
  store ptr %18, ptr %0, align 8, !tbaa !4
  store i32 %.0.i, ptr %8, align 4, !tbaa !12
  br label %av_bprint_alloc.exit

av_bprint_alloc.exit:                             ; preds = %19, %12, %3
  ret void
}